target datalayout = "e-m:e-p270:32:32-p271:32:32-p272:64:64-i64:64-i128:128-f80:128-n8:16:32:64-S128"
target triple = "x86_64-pc-linux-gnu"

%class.htif_t = type { %class.chunked_memif_t, i32, i64, %class.memif_t, i64, i8, %"class.std::vector", %"class.std::vector", %"class.std::__cxx11::basic_string", i32, i64, i64, i64, i64, %"class.std::optional", i8, %class.device_list_t, %class.syscall_t, %class.bcd_t, %"class.std::vector.3", %"class.std::vector", %"class.std::vector", %"class.std::map" }
%class.chunked_memif_t = type { ptr }
%class.memif_t = type { ptr, ptr }
%"class.std::__cxx11::basic_string" = type { %"struct.std::__cxx11::basic_string<char>::_Alloc_hider", i64, %union.anon }
%"struct.std::__cxx11::basic_string<char>::_Alloc_hider" = type { ptr }
%union.anon = type { i64, [8 x i8] }
%"class.std::optional" = type { %"struct.std::_Optional_base" }
%"struct.std::_Optional_base" = type { %"struct.std::_Optional_payload" }
%"struct.std::_Optional_payload" = type { %"struct.std::_Optional_payload_base.base", [3 x i8] }
%"struct.std::_Optional_payload_base.base" = type <{ %"union.std::_Optional_payload_base<int>::_Storage", i8 }>
%"union.std::_Optional_payload_base<int>::_Storage" = type { i32 }
%class.device_list_t = type { %"class.std::vector.3", %class.null_device_t, i64 }
%class.null_device_t = type { %class.device_t }
%class.device_t = type { ptr, %"class.std::vector.8", %"class.std::vector" }
%"class.std::vector.8" = type { %"struct.std::_Vector_base.9" }
%"struct.std::_Vector_base.9" = type { %"struct.std::_Vector_base<std::function<void (command_t)>, std::allocator<std::function<void (command_t)>>>::_Vector_impl" }
%"struct.std::_Vector_base<std::function<void (command_t)>, std::allocator<std::function<void (command_t)>>>::_Vector_impl" = type { %"struct.std::_Vector_base<std::function<void (command_t)>, std::allocator<std::function<void (command_t)>>>::_Vector_impl_data" }
%"struct.std::_Vector_base<std::function<void (command_t)>, std::allocator<std::function<void (command_t)>>>::_Vector_impl_data" = type { ptr, ptr, ptr }
%class.syscall_t = type { %class.device_t, ptr, ptr, %"class.std::vector.13", %class.fds_t, %"class.std::vector.23", %"class.std::__cxx11::basic_string" }
%"class.std::vector.13" = type { %"struct.std::_Vector_base.14" }
%"struct.std::_Vector_base.14" = type { %"struct.std::_Vector_base<unsigned long (syscall_t::*)(unsigned long, unsigned long, unsigned long, unsigned long, unsigned long, unsigned long, unsigned long), std::allocator<unsigned long (syscall_t::*)(unsigned long, unsigned long, unsigned long, unsigned long, unsigned long, unsigned long, unsigned long)>>::_Vector_impl" }
%"struct.std::_Vector_base<unsigned long (syscall_t::*)(unsigned long, unsigned long, unsigned long, unsigned long, unsigned long, unsigned long, unsigned long), std::allocator<unsigned long (syscall_t::*)(unsigned long, unsigned long, unsigned long, unsigned long, unsigned long, unsigned long, unsigned long)>>::_Vector_impl" = type { %"struct.std::_Vector_base<unsigned long (syscall_t::*)(unsigned long, unsigned long, unsigned long, unsigned long, unsigned long, unsigned long, unsigned long), std::allocator<unsigned long (syscall_t::*)(unsigned long, unsigned long, unsigned long, unsigned long, unsigned long, unsigned long, unsigned long)>>::_Vector_impl_data" }
%"struct.std::_Vector_base<unsigned long (syscall_t::*)(unsigned long, unsigned long, unsigned long, unsigned long, unsigned long, unsigned long, unsigned long), std::allocator<unsigned long (syscall_t::*)(unsigned long, unsigned long, unsigned long, unsigned long, unsigned long, unsigned long, unsigned long)>>::_Vector_impl_data" = type { ptr, ptr, ptr }
%class.fds_t = type { %"class.std::vector.18" }
%"class.std::vector.18" = type { %"struct.std::_Vector_base.19" }
%"struct.std::_Vector_base.19" = type { %"struct.std::_Vector_base<int, std::allocator<int>>::_Vector_impl" }
%"struct.std::_Vector_base<int, std::allocator<int>>::_Vector_impl" = type { %"struct.std::_Vector_base<int, std::allocator<int>>::_Vector_impl_data" }
%"struct.std::_Vector_base<int, std::allocator<int>>::_Vector_impl_data" = type { ptr, ptr, ptr }
%"class.std::vector.23" = type { %"struct.std::_Vector_base.24" }
%"struct.std::_Vector_base.24" = type { %"struct.std::_Vector_base<unsigned long, std::allocator<unsigned long>>::_Vector_impl" }
%"struct.std::_Vector_base<unsigned long, std::allocator<unsigned long>>::_Vector_impl" = type { %"struct.std::_Vector_base<unsigned long, std::allocator<unsigned long>>::_Vector_impl_data" }
%"struct.std::_Vector_base<unsigned long, std::allocator<unsigned long>>::_Vector_impl_data" = type { ptr, ptr, ptr }
%class.bcd_t = type { %class.device_t, %"class.std::queue" }
%"class.std::queue" = type { %"class.std::deque" }
%"class.std::deque" = type { %"class.std::_Deque_base" }
%"class.std::_Deque_base" = type { %"struct.std::_Deque_base<command_t, std::allocator<command_t>>::_Deque_impl" }
%"struct.std::_Deque_base<command_t, std::allocator<command_t>>::_Deque_impl" = type { %"struct.std::_Deque_base<command_t, std::allocator<command_t>>::_Deque_impl_data" }
%"struct.std::_Deque_base<command_t, std::allocator<command_t>>::_Deque_impl_data" = type { ptr, i64, %"struct.std::_Deque_iterator", %"struct.std::_Deque_iterator" }
%"struct.std::_Deque_iterator" = type { ptr, ptr, ptr, ptr }
%"class.std::vector.3" = type { %"struct.std::_Vector_base.4" }
%"struct.std::_Vector_base.4" = type { %"struct.std::_Vector_base<device_t *, std::allocator<device_t *>>::_Vector_impl" }
%"struct.std::_Vector_base<device_t *, std::allocator<device_t *>>::_Vector_impl" = type { %"struct.std::_Vector_base<device_t *, std::allocator<device_t *>>::_Vector_impl_data" }
%"struct.std::_Vector_base<device_t *, std::allocator<device_t *>>::_Vector_impl_data" = type { ptr, ptr, ptr }
%"class.std::vector" = type { %"struct.std::_Vector_base" }
%"struct.std::_Vector_base" = type { %"struct.std::_Vector_base<std::__cxx11::basic_string<char>, std::allocator<std::__cxx11::basic_string<char>>>::_Vector_impl" }
%"struct.std::_Vector_base<std::__cxx11::basic_string<char>, std::allocator<std::__cxx11::basic_string<char>>>::_Vector_impl" = type { %"struct.std::_Vector_base<std::__cxx11::basic_string<char>, std::allocator<std::__cxx11::basic_string<char>>>::_Vector_impl_data" }
%"struct.std::_Vector_base<std::__cxx11::basic_string<char>, std::allocator<std::__cxx11::basic_string<char>>>::_Vector_impl_data" = type { ptr, ptr, ptr }
%"class.std::map" = type { %"class.std::_Rb_tree" }
%"class.std::_Rb_tree" = type { %"struct.std::_Rb_tree<unsigned long, std::pair<const unsigned long, std::__cxx11::basic_string<char>>, std::_Select1st<std::pair<const unsigned long, std::__cxx11::basic_string<char>>>, std::less<unsigned long>>::_Rb_tree_impl" }
%"struct.std::_Rb_tree<unsigned long, std::pair<const unsigned long, std::__cxx11::basic_string<char>>, std::_Select1st<std::pair<const unsigned long, std::__cxx11::basic_string<char>>>, std::less<unsigned long>>::_Rb_tree_impl" = type { [8 x i8], %"struct.std::_Rb_tree_header" }
%"struct.std::_Rb_tree_header" = type { %"struct.std::_Rb_tree_node_base", i64 }
%"struct.std::_Rb_tree_node_base" = type { i32, ptr, ptr, ptr }
%"struct.std::_Optional_payload_base" = type <{ %"union.std::_Optional_payload_base<int>::_Storage", i8, [3 x i8] }>

; Function Attrs: mustprogress nounwind uwtable
define linkonce_odr noundef nonnull align 4 dereferenceable(4) ptr @_ZNKSt22_Optional_payload_baseIiE6_M_getEv(ptr noundef nonnull align 4 dereferenceable(5) %0) #6 comdat align 2 {
  %2 = alloca ptr, align 8
  store ptr %0, ptr %2, align 8, !tbaa !246
  %3 = load ptr, ptr %2, align 8
  %4 = getelementptr inbounds nuw %"struct.std::_Optional_payload_base", ptr %3, i32 0, i32 0
  ret ptr %4
}

; Function Attrs: mustprogress nounwind uwtable
define linkonce_odr noundef nonnull align 4 dereferenceable(4) ptr @_ZNKSt19_Optional_base_implIiSt14_Optional_baseIiLb1ELb1EEE6_M_getEv(ptr noundef nonnull align 1 dereferenceable(1) %0) #6 comdat align 2 {
  %2 = alloca ptr, align 8
  store ptr %0, ptr %2, align 8, !tbaa !369
  %3 = load ptr, ptr %2, align 8
  br label %4

4:                                                ; preds = %1
  br label %5

5:                                                ; preds = %4
  br label %6

6:                                                ; preds = %5
  %7 = getelementptr inbounds nuw %"struct.std::_Optional_base", ptr %3, i32 0, i32 0
  %8 = call noundef nonnull align 4 dereferenceable(4) ptr @_ZNKSt22_Optional_payload_baseIiE6_M_getEv(ptr noundef nonnull align 4 dereferenceable(5) %7) #3
  ret ptr %8
}

; Function Attrs: mustprogress nounwind uwtable
define linkonce_odr noundef zeroext i1 @_ZNKSt19_Optional_base_implIiSt14_Optional_baseIiLb1ELb1EEE13_M_is_engagedEv(ptr noundef nonnull align 1 dereferenceable(1) %0) #6 comdat align 2 {
  %2 = alloca ptr, align 8
  store ptr %0, ptr %2, align 8, !tbaa !369
  %3 = load ptr, ptr %2, align 8
  %4 = getelementptr inbounds nuw %"struct.std::_Optional_base", ptr %3, i32 0, i32 0
  %5 = getelementptr inbounds nuw %"struct.std::_Optional_payload_base", ptr %4, i32 0, i32 1
  %6 = load i8, ptr %5, align 4, !tbaa !248, !range !99, !noundef !100
  %7 = trunc i8 %6 to i1
  ret i1 %7
}

; Function Attrs: mustprogress nounwind uwtable
define linkonce_odr noundef i32 @_ZNKRSt8optionalIiE8value_orIiEEiOT_(ptr noundef nonnull align 4 dereferenceable(8) %0, ptr noundef nonnull align 4 dereferenceable(4) %1) #6 comdat align 2 {
  %3 = alloca i32, align 4
  %4 = alloca ptr, align 8
  %5 = alloca ptr, align 8
  store ptr %0, ptr %4, align 8, !tbaa !91
  store ptr %1, ptr %5, align 8, !tbaa !167
  %6 = load ptr, ptr %4, align 8
  %7 = call noundef zeroext i1 @_ZNKSt19_Optional_base_implIiSt14_Optional_baseIiLb1ELb1EEE13_M_is_engagedEv(ptr noundef nonnull align 1 dereferenceable(1) %6) #3
  br i1 %7, label %8, label %11

8:                                                ; preds = %2
  %9 = call noundef nonnull align 4 dereferenceable(4) ptr @_ZNKSt19_Optional_base_implIiSt14_Optional_baseIiLb1ELb1EEE6_M_getEv(ptr noundef nonnull align 1 dereferenceable(1) %6) #3
  %10 = load i32, ptr %9, align 4, !tbaa !97
  store i32 %10, ptr %3, align 4
  br label %14

11:                                               ; preds = %2
  %12 = load ptr, ptr %5, align 8, !tbaa !167
  %13 = load i32, ptr %12, align 4, !tbaa !97
  store i32 %13, ptr %3, align 4
  br label %14

14:                                               ; preds = %11, %8
  %15 = load i32, ptr %3, align 4
  ret i32 %15
}

; Function Attrs: mustprogress uwtable
define noundef i32 @_ZN6htif_t9exit_codeEv(ptr noundef nonnull align 8 dereferenceable(712) %0) #4 align 2 {
  %2 = alloca ptr, align 8
  %3 = alloca i32, align 4
  store ptr %0, ptr %2, align 8, !tbaa !3
  %4 = load ptr, ptr %2, align 8
  %5 = getelementptr inbounds nuw %class.htif_t, ptr %4, i32 0, i32 14
  call void @llvm.lifetime.start.p0(i64 4, ptr %3) #3
  store i32 0, ptr %3, align 4, !tbaa !97
  %6 = call noundef i32 @_ZNKRSt8optionalIiE8value_orIiEEiOT_(ptr noundef nonnull align 4 dereferenceable(8) %5, ptr noundef nonnull align 4 dereferenceable(4) %3)
  %7 = ashr i32 %6, 1
  call void @llvm.lifetime.end.p0(i64 4, ptr %3) #3
  ret i32 %7
}