; Function Attrs: mustprogress nofree norecurse nosync nounwind willreturn memory(argmem: read) uwtable
define noundef range(i32 -1073741824, 1073741824) i32 @_ZN6htif_t9exit_codeEv(ptr noundef nonnull readonly align 8 captures(none) dereferenceable(712) %0) local_unnamed_addr #22 align 2 {
  %2 = getelementptr inbounds nuw i8, ptr %0, i64 176
  %3 = getelementptr inbounds nuw i8, ptr %0, i64 180
  %4 = load i8, ptr %3, align 4, !tbaa !83, !range !92, !noundef !93
  %5 = trunc nuw i8 %4 to i1
  %.val.i = load i32, ptr %2, align 8
  %6 = ashr i32 %.val.i, 1
  %7 = select i1 %5, i32 %6, i32 0
  ret i32 %7
}